; ModuleID = '2/494.c'
source_filename = "2/494.c"
target datalayout = "e-m:e-p270:32:32-p271:32:32-p272:64:64-i64:64-f80:128-n8:16:32:64-S128"
target triple = "x86_64-pc-linux-gnu"

%struct.book = type { i32, [100 x i8] }

@.str = private unnamed_addr constant [3 x i8] c"%d\00", align 1
@.str.1 = private unnamed_addr constant [6 x i8] c"%d %s\00", align 1
@.str.2 = private unnamed_addr constant [4 x i8] c"%c\0A\00", align 1
@.str.3 = private unnamed_addr constant [4 x i8] c"%d\0A\00", align 1

; Function Attrs: noinline nounwind uwtable
define dso_local void @main() #0 {
  %1 = alloca [1000 x %struct.book], align 16
  %2 = alloca i32, align 4
  %3 = alloca i32, align 4
  %4 = alloca i32, align 4
  %5 = alloca i32, align 4
  %6 = alloca i32, align 4
  %7 = alloca [26 x i32], align 16
  %8 = bitcast [26 x i32]* %7 to i8*
  call void @llvm.memset.p0i8.i64(i8* align 16 %8, i8 0, i64 104, i1 false)
  %9 = call i32 (i8*, ...) @__isoc99_scanf(i8* getelementptr inbounds ([3 x i8], [3 x i8]* @.str, i64 0, i64 0), i32* %4)
  store i32 0, i32* %2, align 4
  br label %10

10:                                               ; preds = %25, %0
  %11 = load i32, i32* %2, align 4
  %12 = load i32, i32* %4, align 4
  %13 = icmp slt i32 %11, %12
  br i1 %13, label %14, label %28

14:                                               ; preds = %10
  %15 = load i32, i32* %2, align 4
  %16 = sext i32 %15 to i64
  %17 = getelementptr inbounds [1000 x %struct.book], [1000 x %struct.book]* %1, i64 0, i64 %16
  %18 = getelementptr inbounds %struct.book, %struct.book* %17, i32 0, i32 0
  %19 = load i32, i32* %2, align 4
  %20 = sext i32 %19 to i64
  %21 = getelementptr inbounds [1000 x %struct.book], [1000 x %struct.book]* %1, i64 0, i64 %20
  %22 = getelementptr inbounds %struct.book, %struct.book* %21, i32 0, i32 1
  %23 = getelementptr inbounds [100 x i8], [100 x i8]* %22, i64 0, i64 0
  %24 = call i32 (i8*, ...) @__isoc99_scanf(i8* getelementptr inbounds ([6 x i8], [6 x i8]* @.str.1, i64 0, i64 0), i32* %18, i8* %23)
  br label %25

25:                                               ; preds = %14
  %26 = load i32, i32* %2, align 4
  %27 = add nsw i32 %26, 1
  store i32 %27, i32* %2, align 4
  br label %10

28:                                               ; preds = %10
  store i32 0, i32* %2, align 4
  br label %29

29:                                               ; preds = %64, %28
  %30 = load i32, i32* %2, align 4
  %31 = load i32, i32* %4, align 4
  %32 = icmp slt i32 %30, %31
  br i1 %32, label %33, label %67

33:                                               ; preds = %29
  store i32 0, i32* %3, align 4
  br label %34

34:                                               ; preds = %60, %33
  %35 = load i32, i32* %2, align 4
  %36 = sext i32 %35 to i64
  %37 = getelementptr inbounds [1000 x %struct.book], [1000 x %struct.book]* %1, i64 0, i64 %36
  %38 = getelementptr inbounds %struct.book, %struct.book* %37, i32 0, i32 1
  %39 = load i32, i32* %3, align 4
  %40 = sext i32 %39 to i64
  %41 = getelementptr inbounds [100 x i8], [100 x i8]* %38, i64 0, i64 %40
  %42 = load i8, i8* %41, align 1
  %43 = sext i8 %42 to i32
  %44 = icmp ne i32 %43, 0
  br i1 %44, label %45, label %63

45:                                               ; preds = %34
  %46 = load i32, i32* %2, align 4
  %47 = sext i32 %46 to i64
  %48 = getelementptr inbounds [1000 x %struct.book], [1000 x %struct.book]* %1, i64 0, i64 %47
  %49 = getelementptr inbounds %struct.book, %struct.book* %48, i32 0, i32 1
  %50 = load i32, i32* %3, align 4
  %51 = sext i32 %50 to i64
  %52 = getelementptr inbounds [100 x i8], [100 x i8]* %49, i64 0, i64 %51
  %53 = load i8, i8* %52, align 1
  %54 = sext i8 %53 to i32
  %55 = sub nsw i32 %54, 65
  %56 = sext i32 %55 to i64
  %57 = getelementptr inbounds [26 x i32], [26 x i32]* %7, i64 0, i64 %56
  %58 = load i32, i32* %57, align 4
  %59 = add nsw i32 %58, 1
  store i32 %59, i32* %57, align 4
  br label %60

60:                                               ; preds = %45
  %61 = load i32, i32* %3, align 4
  %62 = add nsw i32 %61, 1
  store i32 %62, i32* %3, align 4
  br label %34

63:                                               ; preds = %34
  br label %64

64:                                               ; preds = %63
  %65 = load i32, i32* %2, align 4
  %66 = add nsw i32 %65, 1
  store i32 %66, i32* %2, align 4
  br label %29

67:                                               ; preds = %29
  %68 = getelementptr inbounds [26 x i32], [26 x i32]* %7, i64 0, i64 0
  %69 = load i32, i32* %68, align 16
  store i32 %69, i32* %6, align 4
  store i32 0, i32* %5, align 4
  store i32 1, i32* %2, align 4
  br label %70

70:                                               ; preds = %87, %67
  %71 = load i32, i32* %2, align 4
  %72 = icmp sle i32 %71, 25
  br i1 %72, label %73, label %90

73:                                               ; preds = %70
  %74 = load i32, i32* %2, align 4
  %75 = sext i32 %74 to i64
  %76 = getelementptr inbounds [26 x i32], [26 x i32]* %7, i64 0, i64 %75
  %77 = load i32, i32* %76, align 4
  %78 = load i32, i32* %6, align 4
  %79 = icmp sgt i32 %77, %78
  br i1 %79, label %80, label %86

80:                                               ; preds = %73
  %81 = load i32, i32* %2, align 4
  %82 = sext i32 %81 to i64
  %83 = getelementptr inbounds [26 x i32], [26 x i32]* %7, i64 0, i64 %82
  %84 = load i32, i32* %83, align 4
  store i32 %84, i32* %6, align 4
  %85 = load i32, i32* %2, align 4
  store i32 %85, i32* %5, align 4
  br label %86

86:                                               ; preds = %80, %73
  br label %87

87:                                               ; preds = %86
  %88 = load i32, i32* %2, align 4
  %89 = add nsw i32 %88, 1
  store i32 %89, i32* %2, align 4
  br label %70

90:                                               ; preds = %70
  %91 = load i32, i32* %5, align 4
  %92 = add nsw i32 %91, 65
  %93 = call i32 (i8*, ...) @printf(i8* getelementptr inbounds ([4 x i8], [4 x i8]* @.str.2, i64 0, i64 0), i32 %92)
  %94 = load i32, i32* %6, align 4
  %95 = call i32 (i8*, ...) @printf(i8* getelementptr inbounds ([4 x i8], [4 x i8]* @.str.3, i64 0, i64 0), i32 %94)
  store i32 0, i32* %2, align 4
  br label %96

96:                                               ; preds = %137, %90
  %97 = load i32, i32* %2, align 4
  %98 = load i32, i32* %4, align 4
  %99 = icmp slt i32 %97, %98
  br i1 %99, label %100, label %140

100:                                              ; preds = %96
  store i32 0, i32* %3, align 4
  br label %101

101:                                              ; preds = %133, %100
  %102 = load i32, i32* %2, align 4
  %103 = sext i32 %102 to i64
  %104 = getelementptr inbounds [1000 x %struct.book], [1000 x %struct.book]* %1, i64 0, i64 %103
  %105 = getelementptr inbounds %struct.book, %struct.book* %104, i32 0, i32 1
  %106 = load i32, i32* %3, align 4
  %107 = sext i32 %106 to i64
  %108 = getelementptr inbounds [100 x i8], [100 x i8]* %105, i64 0, i64 %107
  %109 = load i8, i8* %108, align 1
  %110 = sext i8 %109 to i32
  %111 = icmp ne i32 %110, 0
  br i1 %111, label %112, label %136

112:                                              ; preds = %101
  %113 = load i32, i32* %2, align 4
  %114 = sext i32 %113 to i64
  %115 = getelementptr inbounds [1000 x %struct.book], [1000 x %struct.book]* %1, i64 0, i64 %114
  %116 = getelementptr inbounds %struct.book, %struct.book* %115, i32 0, i32 1
  %117 = load i32, i32* %3, align 4
  %118 = sext i32 %117 to i64
  %119 = getelementptr inbounds [100 x i8], [100 x i8]* %116, i64 0, i64 %118
  %120 = load i8, i8* %119, align 1
  %121 = sext i8 %120 to i32
  %122 = load i32, i32* %5, align 4
  %123 = add nsw i32 %122, 65
  %124 = icmp eq i32 %121, %123
  br i1 %124, label %125, label %132

125:                                              ; preds = %112
  %126 = load i32, i32* %2, align 4
  %127 = sext i32 %126 to i64
  %128 = getelementptr inbounds [1000 x %struct.book], [1000 x %struct.book]* %1, i64 0, i64 %127
  %129 = getelementptr inbounds %struct.book, %struct.book* %128, i32 0, i32 0
  %130 = load i32, i32* %129, align 8
  %131 = call i32 (i8*, ...) @printf(i8* getelementptr inbounds ([4 x i8], [4 x i8]* @.str.3, i64 0, i64 0), i32 %130)
  br label %136

132:                                              ; preds = %112
  br label %133

133:                                              ; preds = %132
  %134 = load i32, i32* %3, align 4
  %135 = add nsw i32 %134, 1
  store i32 %135, i32* %3, align 4
  br label %101

136:                                              ; preds = %125, %101
  br label %137

137:                                              ; preds = %136
  %138 = load i32, i32* %2, align 4
  %139 = add nsw i32 %138, 1
  store i32 %139, i32* %2, align 4
  br label %96

140:                                              ; preds = %96
  ret void
}

; Function Attrs: argmemonly nounwind willreturn
declare void @llvm.memset.p0i8.i64(i8* nocapture writeonly, i8, i64, i1 immarg) #1

declare dso_local i32 @__isoc99_scanf(i8*, ...) #2

declare dso_local i32 @printf(i8*, ...) #2


!llvm.module.flags = !{!0}
!llvm.ident = !{!1}

!0 = !{i32 1, !"wchar_size", i32 4}
!1 = !{!"clang version 10.0.0-4ubuntu1 "}
